	.text
	.file	"target.c"
	.globl	main                    # -- Begin function main
	.p2align	4, 0x90
	.type	main,@function
main:                                   # @main
	.cfi_startproc
# %bb.0:
	pushq	%rbp
	.cfi_def_cfa_offset 16
	.cfi_offset %rbp, -16
	movq	%rsp, %rbp
	.cfi_def_cfa_register %rbp
	movl	$1, %edi           # * set argument 1
	movl	$2, %esi           # * set argument 2
	movl	$3, %edx           # * set argument 3
	callq	foo                # * call foo
	xorl	%eax, %eax
	popq	%rbp
	.cfi_def_cfa %rsp, 8
	retq
.Lfunc_end0:
	.size	main, .Lfunc_end0-main
	.cfi_endproc
                                        # -- End function
	.globl	foo                     # -- Begin function foo
	.p2align	4, 0x90
	.type	foo,@function
foo:                                    # @foo
	.cfi_startproc
# %bb.0:
	pushq	%rbp
	.cfi_def_cfa_offset 16
	.cfi_offset %rbp, -16
	movq	%rsp, %rbp
	.cfi_def_cfa_register %rbp
	movl	%edi, -4(%rbp)     # * save argument 1 to red zone
	movl	%esi, -8(%rbp)     # * save argument 2 to red zone
	movl	%edx, -12(%rbp)    # * save argument 3 to red zone
	popq	%rbp
	.cfi_def_cfa %rsp, 8
	retq
.Lfunc_end1:
	.size	foo, .Lfunc_end1-foo
	.cfi_endproc
                                        # -- End function

	.ident	"clang version 8.0.0 (tags/RELEASE_800/final)"
	.section	".note.GNU-stack","",@progbits
	.addrsig
	.addrsig_sym foo
