	.text
	.file	"target.c"
	.globl	main                    # -- Begin function main
	.p2align	4, 0x90
	.type	main,@function
main:                                   # @main
	.cfi_startproc
# %bb.0:
	pushq	%rbp			   # * save rbp of caller
	.cfi_def_cfa_offset 16
	.cfi_offset %rbp, -16
	movq	%rsp, %rbp         # * set rbp for this function(main)
	.cfi_def_cfa_register %rbp
	callq	foo                # * call foo
	xorl	%eax, %eax         # * set return value to 0
	popq	%rbp               # * restore rbp of caller
	.cfi_def_cfa %rsp, 8
	retq                       # * return to caller
.Lfunc_end0:
	.size	main, .Lfunc_end0-main
	.cfi_endproc
                                        # -- End function
	.globl	foo                     # -- Begin function foo
	.p2align	4, 0x90
	.type	foo,@function
foo:                                    # @foo
	.cfi_startproc
# %bb.0:
	pushq	%rbp               # * save rbp of caller(main)
	.cfi_def_cfa_offset 16
	.cfi_offset %rbp, -16
	movq	%rsp, %rbp         # * set rbp for this function(foo)
	.cfi_def_cfa_register %rbp
	popq	%rbp               # * restore rbp of caller
	.cfi_def_cfa %rsp, 8
	retq                       # * return to caller
.Lfunc_end1:
	.size	foo, .Lfunc_end1-foo
	.cfi_endproc
                                        # -- End function

	.ident	"clang version 8.0.0 (tags/RELEASE_800/final)"
	.section	".note.GNU-stack","",@progbits
	.addrsig
	.addrsig_sym foo
