	.text
	.file	"target.c"
	.globl	main                    # -- Begin function main
	.p2align	4, 0x90
	.type	main,@function
main:                                   # @main
	.cfi_startproc
# %bb.0:
	pushq	%rbp
	.cfi_def_cfa_offset 16
	.cfi_offset %rbp, -16
	movq	%rsp, %rbp
	.cfi_def_cfa_register %rbp
	movl	$1, %edi
	movl	$2, %esi
	movl	$3, %edx
	callq	foo
	xorl	%eax, %eax
	popq	%rbp
	.cfi_def_cfa %rsp, 8
	retq
.Lfunc_end0:
	.size	main, .Lfunc_end0-main
	.cfi_endproc
                                        # -- End function
	.globl	foo                     # -- Begin function foo
	.p2align	4, 0x90
	.type	foo,@function
foo:                                    # @foo
	.cfi_startproc
# %bb.0:
	pushq	%rbp
	.cfi_def_cfa_offset 16
	.cfi_offset %rbp, -16
	movq	%rsp, %rbp
	.cfi_def_cfa_register %rbp
	movl	%edi, -4(%rbp)
	movl	%esi, -8(%rbp)
	movl	%edx, -12(%rbp)
	#APP
	movq	%rbp, %rax         # * save rbp value to rax
	#NO_APP
	movq	%rax, -24(%rbp)    # * save rax value to red zone(p)
	movq	-24(%rbp), %rax    # * read p to rax
	movq	(%rax), %rax       # * rax = *p
	movq	%rax, -32(%rbp)    # * save *p to red zone(caller_rbp)
	popq	%rbp
	.cfi_def_cfa %rsp, 8
	retq
.Lfunc_end1:
	.size	foo, .Lfunc_end1-foo
	.cfi_endproc
                                        # -- End function

	.ident	"clang version 8.0.0 (tags/RELEASE_800/final)"
	.section	".note.GNU-stack","",@progbits
	.addrsig
	.addrsig_sym foo
